; Function Attrs: mustprogress uwtable
define internal fastcc void @_ZL14appendDefValuePKcm(ptr noundef %0, i64 noundef range(i64 -2147483648, 2147483648) %1) unnamed_addr #5 {
  %3 = load ptr, ptr @_ZN8V3PreLex13s_currentLexpE, align 8, !tbaa !32
  %4 = getelementptr inbounds nuw i8, ptr %3, i64 224
  %5 = load i64, ptr %4, align 8, !tbaa !115
  %6 = sub i64 4611686018427387903, %5
  %7 = icmp ult i64 %6, %1
  br i1 %7, label %8, label %_ZN8V3PreLex14appendDefValueEPKcm.exit

8:                                                ; preds = %2
  tail call void @_ZSt20__throw_length_errorPKc(ptr noundef nonnull @.str.503) #42
  unreachable

_ZN8V3PreLex14appendDefValueEPKcm.exit:           ; preds = %2
  %9 = getelementptr inbounds nuw i8, ptr %3, i64 216
  %10 = tail call noundef nonnull align 8 dereferenceable(32) ptr @_ZNSt7__cxx1112basic_stringIcSt11char_traitsIcESaIcEE9_M_appendEPKcm(ptr noundef nonnull align 8 dereferenceable(32) %9, ptr noundef %0, i64 noundef %1)
  ret void
}